; Function Attrs: nounwind uwtable
define hidden void @zim_SplMaxHeap_compare(ptr nocapture noundef readonly %0, ptr nocapture noundef writeonly %1) #0 {
  %3 = alloca ptr, align 8
  %4 = alloca ptr, align 8
  %5 = getelementptr inbounds i8, ptr %0, i64 44
  %6 = load i32, ptr %5, align 4
  %7 = call i32 (i32, ptr, ...) @zend_parse_parameters(i32 noundef %6, ptr noundef nonnull @.str.5, ptr noundef nonnull %3, ptr noundef nonnull %4) #14
  %8 = icmp eq i32 %7, -1
  %9 = load ptr, ptr getelementptr inbounds (%struct._zend_executor_globals, ptr @executor_globals, i64 0, i32 50), align 8
  br i1 %8, label %10, label %12

10:                                               ; preds = %2
  %11 = icmp ne ptr %9, null
  call void @llvm.assume(i1 %11)
  br label %19

12:                                               ; preds = %2
  %.not.i = icmp eq ptr %9, null
  br i1 %.not.i, label %13, label %spl_ptr_heap_zval_max_cmp.exit

13:                                               ; preds = %12
  %14 = load ptr, ptr %4, align 8
  %15 = load ptr, ptr %3, align 8
  %16 = call i32 @zend_compare(ptr noundef %15, ptr noundef %14) #14
  %17 = sext i32 %16 to i64
  br label %spl_ptr_heap_zval_max_cmp.exit

spl_ptr_heap_zval_max_cmp.exit:                   ; preds = %12, %13
  %.0.i = phi i64 [ %17, %13 ], [ 0, %12 ]
  store i64 %.0.i, ptr %1, align 8
  %18 = getelementptr inbounds i8, ptr %1, i64 8
  store i32 4, ptr %18, align 8
  br label %19

19:                                               ; preds = %spl_ptr_heap_zval_max_cmp.exit, %10
  ret void
}